	.file	"foo.c"
	.text
.Ltext0:
	.align 2
	.type	foo, @function
foo:
.LFB0:
	.file 1 "foo.c"
	.loc 1 3 0
	.cfi_startproc
	pushl	%ebp
	.cfi_def_cfa_offset 8
	.cfi_offset 5, -8
	movl	%esp, %ebp
	.cfi_def_cfa_register 5
	.loc 1 4 0
	movl	$0, %eax
	nop
	.loc 1 5 0
	popl	%ebp
	.cfi_restore 5
	.cfi_def_cfa 4, 4
	ret
	.cfi_endproc
    {padding}
.LFE0:
	.size	foo, .-foo
	.align 2
	.globl	main
	.type	main, @function
main:
.LFB1:
	.loc 1 9 0
	.cfi_startproc
	pushl	%ebp
	.cfi_def_cfa_offset 8
	.cfi_offset 5, -8
	movl	%esp, %ebp
	.cfi_def_cfa_register 5
	.loc 1 10 0
	call	foo
	nop
	.loc 1 11 0
	popl	%ebp
	.cfi_restore 5
	.cfi_def_cfa 4, 4
	ret
	.cfi_endproc
.LFE1:
	.size	main, .-main
.Letext0:
	.section	.note.GNU-stack,"",@progbits
