	.arch armv8-a+crc
	.file	"fact.c"
	.text
.Ltext0:
	.cfi_sections	.debug_frame
	.align	2
	.global	fact
	.type	fact, %function
fact:
.LFB0:
	.file 1 "fact.c"
	.loc 1 3 1
	.cfi_startproc
	stp	x29, x30, [sp, -32]!
	.cfi_def_cfa_offset 32
	.cfi_offset 29, -32
	.cfi_offset 30, -24
	mov	x29, sp
	str	w0, [sp, 28]
	.loc 1 4 9
	ldr	w0, [sp, 28]
	cmp	w0, 0
	bne	.L2
# The following instruction (mov w0, 1) was manually inserted so that we have
# an instruction that is assigned the same sloc as the conditional branch above
# (bne, line 4), but that will not be executed even though the branch is
# executed. Because of this, the coverage report is expected to report line 4
# as partially covered (it used to wrongly report it as fully covered).
	mov	w0, 1
	.loc 1 5 12
	mov	w0, 1
	b	.L3
.L2:
	.loc 1 6 14
	ldr	w0, [sp, 28]
	cmp	w0, 1
	bgt	.L4
	.loc 1 7 12
	mov	w0, 1
	b	.L3
.L4:
	.loc 1 9 16
	ldr	w0, [sp, 28]
	sub	w0, w0, #1
	bl	fact
	mov	w1, w0
	.loc 1 9 14 discriminator 1
	ldr	w0, [sp, 28]
	mul	w0, w1, w0
.L3:
	.loc 1 10 1
	nop
	ldp	x29, x30, [sp], 32
	.cfi_restore 30
	.cfi_restore 29
	.cfi_def_cfa_offset 0
	ret
	.cfi_endproc
.LFE0:
	.size	fact, .-fact
.Letext0: